target datalayout = "e-m:e-p270:32:32-p271:32:32-p272:64:64-i64:64-i128:128-f80:128-n8:16:32:64-S128"
target triple = "x86_64-pc-linux-gnu"

@.str.28 = private unnamed_addr constant [4 x i8] c",\0A \00", align 1
@.str.29 = private unnamed_addr constant [2 x i8] c",\00", align 1

; Function Attrs: nounwind uwtable
define internal void @array_dim_to_json(ptr noundef %0, i32 noundef %1, i32 noundef %2, ptr noundef %3, ptr noundef %4, ptr noundef %5, ptr noundef %6, i32 noundef %7, i32 noundef %8, i1 noundef zeroext %9) #0 {
  %11 = alloca ptr, align 8
  %12 = alloca i32, align 4
  %13 = alloca i32, align 4
  %14 = alloca ptr, align 8
  %15 = alloca ptr, align 8
  %16 = alloca ptr, align 8
  %17 = alloca ptr, align 8
  %18 = alloca i32, align 4
  %19 = alloca i32, align 4
  %20 = alloca i8, align 1
  %21 = alloca i32, align 4
  %22 = alloca ptr, align 8
  store ptr %0, ptr %11, align 8
  store i32 %1, ptr %12, align 4
  store i32 %2, ptr %13, align 4
  store ptr %3, ptr %14, align 8
  store ptr %4, ptr %15, align 8
  store ptr %5, ptr %16, align 8
  store ptr %6, ptr %17, align 8
  store i32 %7, ptr %18, align 4
  store i32 %8, ptr %19, align 4
  %23 = zext i1 %9 to i8
  store i8 %23, ptr %20, align 1
  call void @llvm.lifetime.start.p0(i64 4, ptr %21) #14
  call void @llvm.lifetime.start.p0(i64 8, ptr %22) #14
  %24 = load i8, ptr %20, align 1, !range !4, !noundef !5
  %25 = trunc i8 %24 to i1
  %26 = select i1 %25, ptr @.str.28, ptr @.str.29
  store ptr %26, ptr %22, align 8
  %27 = load ptr, ptr %11, align 8
  call void @appendStringInfoChar(ptr noundef %27, i8 noundef signext 91)
  store i32 1, ptr %21, align 4
  br label %28

28:                                               ; preds = %79, %10
  %29 = load i32, ptr %21, align 4
  %30 = load ptr, ptr %14, align 8
  %31 = load i32, ptr %12, align 4
  %32 = sext i32 %31 to i64
  %33 = getelementptr inbounds i32, ptr %30, i64 %32
  %34 = load i32, ptr %33, align 4
  %35 = icmp sle i32 %29, %34
  br i1 %35, label %36, label %82

36:                                               ; preds = %28
  %37 = load i32, ptr %21, align 4
  %38 = icmp sgt i32 %37, 1
  br i1 %38, label %39, label %42

39:                                               ; preds = %36
  %40 = load ptr, ptr %11, align 8
  %41 = load ptr, ptr %22, align 8
  call void @appendStringInfoString(ptr noundef %40, ptr noundef %41)
  br label %42

42:                                               ; preds = %39, %36
  %43 = load i32, ptr %12, align 4
  %44 = add i32 %43, 1
  %45 = load i32, ptr %13, align 4
  %46 = icmp eq i32 %44, %45
  br i1 %46, label %47, label %67

47:                                               ; preds = %42
  %48 = load ptr, ptr %15, align 8
  %49 = load ptr, ptr %17, align 8
  %50 = load i32, ptr %49, align 4
  %51 = sext i32 %50 to i64
  %52 = getelementptr inbounds i64, ptr %48, i64 %51
  %53 = load i64, ptr %52, align 8
  %54 = load ptr, ptr %16, align 8
  %55 = load ptr, ptr %17, align 8
  %56 = load i32, ptr %55, align 4
  %57 = sext i32 %56 to i64
  %58 = getelementptr inbounds i8, ptr %54, i64 %57
  %59 = load i8, ptr %58, align 1, !range !4, !noundef !5
  %60 = trunc i8 %59 to i1
  %61 = load ptr, ptr %11, align 8
  %62 = load i32, ptr %18, align 4
  %63 = load i32, ptr %19, align 4
  call void @datum_to_json_internal(i64 noundef %53, i1 noundef zeroext %60, ptr noundef %61, i32 noundef %62, i32 noundef %63, i1 noundef zeroext false)
  %64 = load ptr, ptr %17, align 8
  %65 = load i32, ptr %64, align 4
  %66 = add i32 %65, 1
  store i32 %66, ptr %64, align 4
  br label %78

67:                                               ; preds = %42
  %68 = load ptr, ptr %11, align 8
  %69 = load i32, ptr %12, align 4
  %70 = add i32 %69, 1
  %71 = load i32, ptr %13, align 4
  %72 = load ptr, ptr %14, align 8
  %73 = load ptr, ptr %15, align 8
  %74 = load ptr, ptr %16, align 8
  %75 = load ptr, ptr %17, align 8
  %76 = load i32, ptr %18, align 4
  %77 = load i32, ptr %19, align 4
  call void @array_dim_to_json(ptr noundef %68, i32 noundef %70, i32 noundef %71, ptr noundef %72, ptr noundef %73, ptr noundef %74, ptr noundef %75, i32 noundef %76, i32 noundef %77, i1 noundef zeroext false)
  br label %78

78:                                               ; preds = %67, %47
  br label %79

79:                                               ; preds = %78
  %80 = load i32, ptr %21, align 4
  %81 = add i32 %80, 1
  store i32 %81, ptr %21, align 4
  br label %28, !llvm.loop !16

82:                                               ; preds = %28
  %83 = load ptr, ptr %11, align 8
  call void @appendStringInfoChar(ptr noundef %83, i8 noundef signext 93)
  call void @llvm.lifetime.end.p0(i64 8, ptr %22) #14
  call void @llvm.lifetime.end.p0(i64 4, ptr %21) #14
  ret void
}