; Function Attrs: nounwind uwtable
define internal fastcc void @array_dim_to_json(ptr noundef %0, i32 noundef %1, i32 noundef %2, ptr noundef readonly captures(none) %3, ptr noundef readonly captures(none) %4, ptr noundef readonly captures(none) %5, ptr noundef nonnull captures(none) %6, i32 noundef %7, i32 noundef %8, i1 noundef zeroext %9) unnamed_addr #0 {
  %11 = select i1 %9, ptr @.str.28, ptr @.str.29
  tail call void @appendStringInfoChar(ptr noundef %0, i8 noundef signext 91) #10
  %12 = sext i32 %1 to i64
  %13 = getelementptr inbounds i32, ptr %3, i64 %12
  %14 = load i32, ptr %13, align 4
  %.not30 = icmp slt i32 %14, 1
  br i1 %.not30, label %._crit_edge, label %.lr.ph

.lr.ph:                                           ; preds = %10
  %15 = add i32 %1, 1
  %16 = icmp eq i32 %15, %2
  br i1 %16, label %.lr.ph.split.us, label %.lr.ph.split

.lr.ph.split.us:                                  ; preds = %.lr.ph, %19
  %.031.us = phi i32 [ %29, %19 ], [ 1, %.lr.ph ]
  %17 = icmp sgt i32 %.031.us, 1
  br i1 %17, label %18, label %19

18:                                               ; preds = %.lr.ph.split.us
  tail call void @appendStringInfoString(ptr noundef %0, ptr noundef nonnull %11) #10
  br label %19

19:                                               ; preds = %18, %.lr.ph.split.us
  %20 = load i32, ptr %6, align 4
  %21 = sext i32 %20 to i64
  %22 = getelementptr inbounds i64, ptr %4, i64 %21
  %23 = load i64, ptr %22, align 8
  %24 = getelementptr inbounds i8, ptr %5, i64 %21
  %25 = load i8, ptr %24, align 1, !range !4, !noundef !5
  %26 = trunc nuw i8 %25 to i1
  tail call fastcc void @datum_to_json_internal(i64 noundef %23, i1 noundef zeroext %26, ptr noundef %0, i32 noundef %7, i32 noundef %8, i1 noundef zeroext false)
  %27 = load i32, ptr %6, align 4
  %28 = add i32 %27, 1
  store i32 %28, ptr %6, align 4
  %29 = add i32 %.031.us, 1
  %30 = load i32, ptr %13, align 4
  %.not.us = icmp sgt i32 %29, %30
  br i1 %.not.us, label %._crit_edge, label %.lr.ph.split.us, !llvm.loop !16

.lr.ph.split:                                     ; preds = %.lr.ph, %33
  %.031 = phi i32 [ %34, %33 ], [ 1, %.lr.ph ]
  %31 = icmp sgt i32 %.031, 1
  br i1 %31, label %32, label %33

32:                                               ; preds = %.lr.ph.split
  tail call void @appendStringInfoString(ptr noundef %0, ptr noundef nonnull %11) #10
  br label %33

33:                                               ; preds = %32, %.lr.ph.split
  tail call fastcc void @array_dim_to_json(ptr noundef %0, i32 noundef %15, i32 noundef %2, ptr noundef nonnull %3, ptr noundef %4, ptr noundef %5, ptr noundef %6, i32 noundef %7, i32 noundef %8, i1 noundef zeroext false)
  %34 = add i32 %.031, 1
  %35 = load i32, ptr %13, align 4
  %.not = icmp sgt i32 %34, %35
  br i1 %.not, label %._crit_edge, label %.lr.ph.split, !llvm.loop !16

._crit_edge:                                      ; preds = %33, %19, %10
  tail call void @appendStringInfoChar(ptr noundef %0, i8 noundef signext 93) #10
  ret void
}